target datalayout = "e-m:e-p270:32:32-p271:32:32-p272:64:64-i64:64-i128:128-f80:128-n8:16:32:64-S128"
target triple = "x86_64-pc-linux-gnu"

%struct.Clu_Man_t_ = type { i32, i32, i32, i32, i32, i32, i32, i32, i32, i32, i32, i32, i32, i32, i32, ptr, ptr, ptr, ptr, i32, i32, i32, ptr, ptr, ptr, i32, i32, i32, i32, ptr, ptr, ptr, i32, i32 }
%struct.Aig_Obj_t_ = type { %union.anon, ptr, ptr, i64, i32, i32, %union.anon.0 }
%union.anon = type { ptr }
%union.anon.0 = type { ptr }
%struct.Aig_Man_t_ = type { ptr, ptr, ptr, ptr, ptr, ptr, ptr, %struct.Aig_Obj_t_, i32, i32, i32, i32, i32, i32, [7 x i32], i32, ptr, i32, ptr, i32, ptr, i32, i32, i32, ptr, i32, i32, i32, i32, i32, ptr, ptr, i32, ptr, ptr, i32, ptr, ptr, i32, i32, i32, ptr, ptr, ptr, ptr, ptr, ptr, ptr, ptr, ptr, ptr, ptr, ptr, ptr, ptr, i32, ptr, ptr, ptr, ptr, i32, i64, i64, i64, ptr, ptr }
%struct.Vec_Int_t_ = type { i32, i32, ptr }
%struct.Vec_Ptr_t_ = type { i32, i32, ptr }

; Function Attrs: inlinehint nounwind uwtable
define internal ptr @Vec_PtrEntry(ptr noundef %0, i32 noundef %1) #2 {
  %3 = alloca ptr, align 8
  %4 = alloca i32, align 4
  store ptr %0, ptr %3, align 8, !tbaa !109
  store i32 %1, ptr %4, align 4, !tbaa !21
  %5 = load ptr, ptr %3, align 8, !tbaa !109
  %6 = getelementptr inbounds nuw %struct.Vec_Ptr_t_, ptr %5, i32 0, i32 2
  %7 = load ptr, ptr %6, align 8, !tbaa !112
  %8 = load i32, ptr %4, align 4, !tbaa !21
  %9 = sext i32 %8 to i64
  %10 = getelementptr inbounds ptr, ptr %7, i64 %9
  %11 = load ptr, ptr %10, align 8, !tbaa !113
  ret ptr %11
}

; Function Attrs: inlinehint nounwind uwtable
define internal ptr @Vec_PtrAllocArray(ptr noundef %0, i32 noundef %1) #2 {
  %3 = alloca ptr, align 8
  %4 = alloca i32, align 4
  %5 = alloca ptr, align 8
  store ptr %0, ptr %3, align 8, !tbaa !113
  store i32 %1, ptr %4, align 4, !tbaa !21
  call void @llvm.lifetime.start.p0(i64 8, ptr %5) #11
  %6 = call noalias ptr @malloc(i64 noundef 16) #12
  store ptr %6, ptr %5, align 8, !tbaa !109
  %7 = load i32, ptr %4, align 4, !tbaa !21
  %8 = load ptr, ptr %5, align 8, !tbaa !109
  %9 = getelementptr inbounds nuw %struct.Vec_Ptr_t_, ptr %8, i32 0, i32 1
  store i32 %7, ptr %9, align 4, !tbaa !110
  %10 = load i32, ptr %4, align 4, !tbaa !21
  %11 = load ptr, ptr %5, align 8, !tbaa !109
  %12 = getelementptr inbounds nuw %struct.Vec_Ptr_t_, ptr %11, i32 0, i32 0
  store i32 %10, ptr %12, align 8, !tbaa !219
  %13 = load ptr, ptr %3, align 8, !tbaa !113
  %14 = load ptr, ptr %5, align 8, !tbaa !109
  %15 = getelementptr inbounds nuw %struct.Vec_Ptr_t_, ptr %14, i32 0, i32 2
  store ptr %13, ptr %15, align 8, !tbaa !112
  %16 = load ptr, ptr %5, align 8, !tbaa !109
  call void @llvm.lifetime.end.p0(i64 8, ptr %5) #11
  ret ptr %16
}

; Function Attrs: inlinehint nounwind uwtable
define internal i32 @Vec_PtrSize(ptr noundef %0) #2 {
  %2 = alloca ptr, align 8
  store ptr %0, ptr %2, align 8, !tbaa !109
  %3 = load ptr, ptr %2, align 8, !tbaa !109
  %4 = getelementptr inbounds nuw %struct.Vec_Ptr_t_, ptr %3, i32 0, i32 1
  %5 = load i32, ptr %4, align 4, !tbaa !110
  ret i32 %5
}

; Function Attrs: inlinehint nounwind uwtable
define internal void @Vec_PtrCleanSimInfo(ptr noundef %0, i32 noundef %1, i32 noundef %2) #2 {
  %4 = alloca ptr, align 8
  %5 = alloca i32, align 4
  %6 = alloca i32, align 4
  %7 = alloca i32, align 4
  store ptr %0, ptr %4, align 8, !tbaa !109
  store i32 %1, ptr %5, align 4, !tbaa !21
  store i32 %2, ptr %6, align 4, !tbaa !21
  call void @llvm.lifetime.start.p0(i64 4, ptr %7) #11
  store i32 0, ptr %7, align 4, !tbaa !21
  br label %8

8:                                                ; preds = %27, %3
  %9 = load i32, ptr %7, align 4, !tbaa !21
  %10 = load ptr, ptr %4, align 8, !tbaa !109
  %11 = getelementptr inbounds nuw %struct.Vec_Ptr_t_, ptr %10, i32 0, i32 1
  %12 = load i32, ptr %11, align 4, !tbaa !110
  %13 = icmp slt i32 %9, %12
  br i1 %13, label %14, label %30

14:                                               ; preds = %8
  %15 = load ptr, ptr %4, align 8, !tbaa !109
  %16 = load i32, ptr %7, align 4, !tbaa !21
  %17 = call ptr @Vec_PtrEntry(ptr noundef %15, i32 noundef %16)
  %18 = load i32, ptr %5, align 4, !tbaa !21
  %19 = mul nsw i32 4, %18
  %20 = sext i32 %19 to i64
  %21 = getelementptr inbounds i8, ptr %17, i64 %20
  %22 = load i32, ptr %6, align 4, !tbaa !21
  %23 = load i32, ptr %5, align 4, !tbaa !21
  %24 = sub nsw i32 %22, %23
  %25 = mul nsw i32 4, %24
  %26 = sext i32 %25 to i64
  call void @llvm.memset.p0.i64(ptr align 1 %21, i8 0, i64 %26, i1 false)
  br label %27

27:                                               ; preds = %14
  %28 = load i32, ptr %7, align 4, !tbaa !21
  %29 = add nsw i32 %28, 1
  store i32 %29, ptr %7, align 4, !tbaa !21
  br label %8, !llvm.loop !171

30:                                               ; preds = %8
  call void @llvm.lifetime.end.p0(i64 4, ptr %7) #11
  ret void
}

; Function Attrs: inlinehint nounwind uwtable
define internal ptr @Vec_PtrAllocSimInfo(i32 noundef %0, i32 noundef %1) #2 {
  %3 = alloca i32, align 4
  %4 = alloca i32, align 4
  %5 = alloca ptr, align 8
  %6 = alloca ptr, align 8
  %7 = alloca i32, align 4
  store i32 %0, ptr %3, align 4, !tbaa !21
  store i32 %1, ptr %4, align 4, !tbaa !21
  call void @llvm.lifetime.start.p0(i64 8, ptr %5) #11
  call void @llvm.lifetime.start.p0(i64 8, ptr %6) #11
  call void @llvm.lifetime.start.p0(i64 4, ptr %7) #11
  %8 = load i32, ptr %4, align 4, !tbaa !21
  %9 = sext i32 %8 to i64
  %10 = mul i64 4, %9
  %11 = add i64 8, %10
  %12 = load i32, ptr %3, align 4, !tbaa !21
  %13 = sext i32 %12 to i64
  %14 = mul i64 %11, %13
  %15 = mul i64 1, %14
  %16 = call noalias ptr @malloc(i64 noundef %15) #12
  store ptr %16, ptr %5, align 8, !tbaa !113
  %17 = load ptr, ptr %5, align 8, !tbaa !113
  %18 = load i32, ptr %3, align 4, !tbaa !21
  %19 = sext i32 %18 to i64
  %20 = getelementptr inbounds ptr, ptr %17, i64 %19
  store ptr %20, ptr %6, align 8, !tbaa !42
  store i32 0, ptr %7, align 4, !tbaa !21
  br label %21

21:                                               ; preds = %36, %2
  %22 = load i32, ptr %7, align 4, !tbaa !21
  %23 = load i32, ptr %3, align 4, !tbaa !21
  %24 = icmp slt i32 %22, %23
  br i1 %24, label %25, label %39

25:                                               ; preds = %21
  %26 = load ptr, ptr %6, align 8, !tbaa !42
  %27 = load i32, ptr %7, align 4, !tbaa !21
  %28 = load i32, ptr %4, align 4, !tbaa !21
  %29 = mul nsw i32 %27, %28
  %30 = sext i32 %29 to i64
  %31 = getelementptr inbounds i32, ptr %26, i64 %30
  %32 = load ptr, ptr %5, align 8, !tbaa !113
  %33 = load i32, ptr %7, align 4, !tbaa !21
  %34 = sext i32 %33 to i64
  %35 = getelementptr inbounds ptr, ptr %32, i64 %34
  store ptr %31, ptr %35, align 8, !tbaa !113
  br label %36

36:                                               ; preds = %25
  %37 = load i32, ptr %7, align 4, !tbaa !21
  %38 = add nsw i32 %37, 1
  store i32 %38, ptr %7, align 4, !tbaa !21
  br label %21, !llvm.loop !194

39:                                               ; preds = %21
  %40 = load ptr, ptr %5, align 8, !tbaa !113
  %41 = load i32, ptr %3, align 4, !tbaa !21
  %42 = call ptr @Vec_PtrAllocArray(ptr noundef %40, i32 noundef %41)
  call void @llvm.lifetime.end.p0(i64 4, ptr %7) #11
  call void @llvm.lifetime.end.p0(i64 8, ptr %6) #11
  call void @llvm.lifetime.end.p0(i64 8, ptr %5) #11
  ret ptr %42
}

; Function Attrs: inlinehint nounwind uwtable
define internal i32 @Aig_ManObjNumMax(ptr noundef %0) #2 {
  %2 = alloca ptr, align 8
  store ptr %0, ptr %2, align 8, !tbaa !34
  %3 = load ptr, ptr %2, align 8, !tbaa !34
  %4 = getelementptr inbounds nuw %struct.Aig_Man_t_, ptr %3, i32 0, i32 4
  %5 = load ptr, ptr %4, align 8, !tbaa !118
  %6 = call i32 @Vec_PtrSize(ptr noundef %5)
  ret i32 %6
}

; Function Attrs: inlinehint nounwind uwtable
define internal ptr @Vec_IntAlloc(i32 noundef %0) #2 {
  %2 = alloca i32, align 4
  %3 = alloca ptr, align 8
  store i32 %0, ptr %2, align 4, !tbaa !21
  call void @llvm.lifetime.start.p0(i64 8, ptr %3) #11
  %4 = call noalias ptr @malloc(i64 noundef 16) #12
  store ptr %4, ptr %3, align 8, !tbaa !90
  %5 = load i32, ptr %2, align 4, !tbaa !21
  %6 = icmp sgt i32 %5, 0
  br i1 %6, label %7, label %11

7:                                                ; preds = %1
  %8 = load i32, ptr %2, align 4, !tbaa !21
  %9 = icmp slt i32 %8, 16
  br i1 %9, label %10, label %11

10:                                               ; preds = %7
  store i32 16, ptr %2, align 4, !tbaa !21
  br label %11

11:                                               ; preds = %10, %7, %1
  %12 = load ptr, ptr %3, align 8, !tbaa !90
  %13 = getelementptr inbounds nuw %struct.Vec_Int_t_, ptr %12, i32 0, i32 1
  store i32 0, ptr %13, align 4, !tbaa !91
  %14 = load i32, ptr %2, align 4, !tbaa !21
  %15 = load ptr, ptr %3, align 8, !tbaa !90
  %16 = getelementptr inbounds nuw %struct.Vec_Int_t_, ptr %15, i32 0, i32 0
  store i32 %14, ptr %16, align 8, !tbaa !97
  %17 = load ptr, ptr %3, align 8, !tbaa !90
  %18 = getelementptr inbounds nuw %struct.Vec_Int_t_, ptr %17, i32 0, i32 0
  %19 = load i32, ptr %18, align 8, !tbaa !97
  %20 = icmp ne i32 %19, 0
  br i1 %20, label %21, label %28

21:                                               ; preds = %11
  %22 = load ptr, ptr %3, align 8, !tbaa !90
  %23 = getelementptr inbounds nuw %struct.Vec_Int_t_, ptr %22, i32 0, i32 0
  %24 = load i32, ptr %23, align 8, !tbaa !97
  %25 = sext i32 %24 to i64
  %26 = mul i64 4, %25
  %27 = call noalias ptr @malloc(i64 noundef %26) #12
  br label %29

28:                                               ; preds = %11
  br label %29

29:                                               ; preds = %28, %21
  %30 = phi ptr [ %27, %21 ], [ null, %28 ]
  %31 = load ptr, ptr %3, align 8, !tbaa !90
  %32 = getelementptr inbounds nuw %struct.Vec_Int_t_, ptr %31, i32 0, i32 2
  store ptr %30, ptr %32, align 8, !tbaa !93
  %33 = load ptr, ptr %3, align 8, !tbaa !90
  call void @llvm.lifetime.end.p0(i64 8, ptr %3) #11
  ret ptr %33
}

; Function Attrs: nounwind uwtable
define ptr @Fra_ClausAlloc(ptr noundef %0, i32 noundef %1, i32 noundef %2, i32 noundef %3, i32 noundef %4, i32 noundef %5, i32 noundef %6, i32 noundef %7, i32 noundef %8, i32 noundef %9, i32 noundef %10, i32 noundef %11) #0 {
  %13 = alloca ptr, align 8
  %14 = alloca i32, align 4
  %15 = alloca i32, align 4
  %16 = alloca i32, align 4
  %17 = alloca i32, align 4
  %18 = alloca i32, align 4
  %19 = alloca i32, align 4
  %20 = alloca i32, align 4
  %21 = alloca i32, align 4
  %22 = alloca i32, align 4
  %23 = alloca i32, align 4
  %24 = alloca i32, align 4
  %25 = alloca ptr, align 8
  store ptr %0, ptr %13, align 8, !tbaa !34
  store i32 %1, ptr %14, align 4, !tbaa !21
  store i32 %2, ptr %15, align 4, !tbaa !21
  store i32 %3, ptr %16, align 4, !tbaa !21
  store i32 %4, ptr %17, align 4, !tbaa !21
  store i32 %5, ptr %18, align 4, !tbaa !21
  store i32 %6, ptr %19, align 4, !tbaa !21
  store i32 %7, ptr %20, align 4, !tbaa !21
  store i32 %8, ptr %21, align 4, !tbaa !21
  store i32 %9, ptr %22, align 4, !tbaa !21
  store i32 %10, ptr %23, align 4, !tbaa !21
  store i32 %11, ptr %24, align 4, !tbaa !21
  call void @llvm.lifetime.start.p0(i64 8, ptr %25) #11
  %26 = call noalias ptr @malloc(i64 noundef 184) #12
  store ptr %26, ptr %25, align 8, !tbaa !3
  %27 = load ptr, ptr %25, align 8, !tbaa !3
  call void @llvm.memset.p0.i64(ptr align 8 %27, i8 0, i64 184, i1 false)
  %28 = load ptr, ptr %13, align 8, !tbaa !34
  %29 = load ptr, ptr %25, align 8, !tbaa !3
  %30 = getelementptr inbounds nuw %struct.Clu_Man_t_, ptr %29, i32 0, i32 15
  store ptr %28, ptr %30, align 8, !tbaa !22
  %31 = load i32, ptr %14, align 4, !tbaa !21
  %32 = load ptr, ptr %25, align 8, !tbaa !3
  %33 = getelementptr inbounds nuw %struct.Clu_Man_t_, ptr %32, i32 0, i32 0
  store i32 %31, ptr %33, align 8, !tbaa !26
  %34 = load i32, ptr %15, align 4, !tbaa !21
  %35 = load ptr, ptr %25, align 8, !tbaa !3
  %36 = getelementptr inbounds nuw %struct.Clu_Man_t_, ptr %35, i32 0, i32 1
  store i32 %34, ptr %36, align 4, !tbaa !25
  %37 = load i32, ptr %16, align 4, !tbaa !21
  %38 = load ptr, ptr %25, align 8, !tbaa !3
  %39 = getelementptr inbounds nuw %struct.Clu_Man_t_, ptr %38, i32 0, i32 2
  store i32 %37, ptr %39, align 8, !tbaa !85
  %40 = load i32, ptr %17, align 4, !tbaa !21
  %41 = load ptr, ptr %25, align 8, !tbaa !3
  %42 = getelementptr inbounds nuw %struct.Clu_Man_t_, ptr %41, i32 0, i32 3
  store i32 %40, ptr %42, align 4, !tbaa !129
  %43 = load i32, ptr %18, align 4, !tbaa !21
  %44 = load ptr, ptr %25, align 8, !tbaa !3
  %45 = getelementptr inbounds nuw %struct.Clu_Man_t_, ptr %44, i32 0, i32 4
  store i32 %43, ptr %45, align 8, !tbaa !132
  %46 = load i32, ptr %19, align 4, !tbaa !21
  %47 = load ptr, ptr %25, align 8, !tbaa !3
  %48 = getelementptr inbounds nuw %struct.Clu_Man_t_, ptr %47, i32 0, i32 5
  store i32 %46, ptr %48, align 4, !tbaa !128
  %49 = load i32, ptr %20, align 4, !tbaa !21
  %50 = load ptr, ptr %25, align 8, !tbaa !3
  %51 = getelementptr inbounds nuw %struct.Clu_Man_t_, ptr %50, i32 0, i32 6
  store i32 %49, ptr %51, align 8, !tbaa !191
  %52 = load i32, ptr %21, align 4, !tbaa !21
  %53 = load ptr, ptr %25, align 8, !tbaa !3
  %54 = getelementptr inbounds nuw %struct.Clu_Man_t_, ptr %53, i32 0, i32 7
  store i32 %52, ptr %54, align 4, !tbaa !192
  %55 = load i32, ptr %22, align 4, !tbaa !21
  %56 = load ptr, ptr %25, align 8, !tbaa !3
  %57 = getelementptr inbounds nuw %struct.Clu_Man_t_, ptr %56, i32 0, i32 8
  store i32 %55, ptr %57, align 8, !tbaa !115
  %58 = load i32, ptr %23, align 4, !tbaa !21
  %59 = load ptr, ptr %25, align 8, !tbaa !3
  %60 = getelementptr inbounds nuw %struct.Clu_Man_t_, ptr %59, i32 0, i32 9
  store i32 %58, ptr %60, align 4, !tbaa !89
  %61 = load i32, ptr %24, align 4, !tbaa !21
  %62 = load ptr, ptr %25, align 8, !tbaa !3
  %63 = getelementptr inbounds nuw %struct.Clu_Man_t_, ptr %62, i32 0, i32 10
  store i32 %61, ptr %63, align 8, !tbaa !193
  %64 = load ptr, ptr %25, align 8, !tbaa !3
  %65 = getelementptr inbounds nuw %struct.Clu_Man_t_, ptr %64, i32 0, i32 11
  store i32 512, ptr %65, align 4, !tbaa !82
  %66 = load ptr, ptr %25, align 8, !tbaa !3
  %67 = getelementptr inbounds nuw %struct.Clu_Man_t_, ptr %66, i32 0, i32 13
  store i32 32, ptr %67, align 4, !tbaa !114
  %68 = load ptr, ptr %25, align 8, !tbaa !3
  %69 = getelementptr inbounds nuw %struct.Clu_Man_t_, ptr %68, i32 0, i32 1
  %70 = load i32, ptr %69, align 4, !tbaa !25
  %71 = load ptr, ptr %25, align 8, !tbaa !3
  %72 = getelementptr inbounds nuw %struct.Clu_Man_t_, ptr %71, i32 0, i32 11
  %73 = load i32, ptr %72, align 4, !tbaa !82
  %74 = mul nsw i32 %70, %73
  %75 = load ptr, ptr %25, align 8, !tbaa !3
  %76 = getelementptr inbounds nuw %struct.Clu_Man_t_, ptr %75, i32 0, i32 13
  %77 = load i32, ptr %76, align 4, !tbaa !114
  %78 = sdiv i32 %74, %77
  %79 = load ptr, ptr %25, align 8, !tbaa !3
  %80 = getelementptr inbounds nuw %struct.Clu_Man_t_, ptr %79, i32 0, i32 12
  store i32 %78, ptr %80, align 8, !tbaa !54
  %81 = call ptr @Vec_IntAlloc(i32 noundef 16384)
  %82 = load ptr, ptr %25, align 8, !tbaa !3
  %83 = getelementptr inbounds nuw %struct.Clu_Man_t_, ptr %82, i32 0, i32 22
  store ptr %81, ptr %83, align 8, !tbaa !94
  %84 = call ptr @Vec_IntAlloc(i32 noundef 4096)
  %85 = load ptr, ptr %25, align 8, !tbaa !3
  %86 = getelementptr inbounds nuw %struct.Clu_Man_t_, ptr %85, i32 0, i32 23
  store ptr %84, ptr %86, align 8, !tbaa !96
  %87 = call ptr @Vec_IntAlloc(i32 noundef 4096)
  %88 = load ptr, ptr %25, align 8, !tbaa !3
  %89 = getelementptr inbounds nuw %struct.Clu_Man_t_, ptr %88, i32 0, i32 24
  store ptr %87, ptr %89, align 8, !tbaa !83
  %90 = call ptr @Vec_IntAlloc(i32 noundef 16384)
  %91 = load ptr, ptr %25, align 8, !tbaa !3
  %92 = getelementptr inbounds nuw %struct.Clu_Man_t_, ptr %91, i32 0, i32 29
  store ptr %90, ptr %92, align 8, !tbaa !142
  %93 = call ptr @Vec_IntAlloc(i32 noundef 4096)
  %94 = load ptr, ptr %25, align 8, !tbaa !3
  %95 = getelementptr inbounds nuw %struct.Clu_Man_t_, ptr %94, i32 0, i32 30
  store ptr %93, ptr %95, align 8, !tbaa !141
  %96 = load ptr, ptr %25, align 8, !tbaa !3
  %97 = getelementptr inbounds nuw %struct.Clu_Man_t_, ptr %96, i32 0, i32 33
  store i32 1024, ptr %97, align 4, !tbaa !169
  %98 = load ptr, ptr %25, align 8, !tbaa !3
  %99 = getelementptr inbounds nuw %struct.Clu_Man_t_, ptr %98, i32 0, i32 15
  %100 = load ptr, ptr %99, align 8, !tbaa !22
  %101 = call i32 @Aig_ManObjNumMax(ptr noundef %100)
  %102 = add nsw i32 %101, 1
  %103 = load ptr, ptr %25, align 8, !tbaa !3
  %104 = getelementptr inbounds nuw %struct.Clu_Man_t_, ptr %103, i32 0, i32 33
  %105 = load i32, ptr %104, align 4, !tbaa !169
  %106 = sdiv i32 %105, 32
  %107 = call ptr @Vec_PtrAllocSimInfo(i32 noundef %102, i32 noundef %106)
  %108 = load ptr, ptr %25, align 8, !tbaa !3
  %109 = getelementptr inbounds nuw %struct.Clu_Man_t_, ptr %108, i32 0, i32 31
  store ptr %107, ptr %109, align 8, !tbaa !168
  %110 = load ptr, ptr %25, align 8, !tbaa !3
  %111 = getelementptr inbounds nuw %struct.Clu_Man_t_, ptr %110, i32 0, i32 31
  %112 = load ptr, ptr %111, align 8, !tbaa !168
  %113 = load ptr, ptr %25, align 8, !tbaa !3
  %114 = getelementptr inbounds nuw %struct.Clu_Man_t_, ptr %113, i32 0, i32 33
  %115 = load i32, ptr %114, align 4, !tbaa !169
  %116 = sdiv i32 %115, 32
  call void @Vec_PtrCleanSimInfo(ptr noundef %112, i32 noundef 0, i32 noundef %116)
  %117 = load ptr, ptr %25, align 8, !tbaa !3
  call void @llvm.lifetime.end.p0(i64 8, ptr %25) #11
  ret ptr %117
}