; Function Attrs: nofree nounwind uwtable
define noalias noundef ptr @Fra_ClausAlloc(ptr noundef %0, i32 noundef %1, i32 noundef %2, i32 noundef %3, i32 noundef %4, i32 noundef %5, i32 noundef %6, i32 noundef %7, i32 noundef %8, i32 noundef %9, i32 noundef %10, i32 noundef %11) local_unnamed_addr #13 {
  %calloc = tail call dereferenceable_or_null(184) ptr @calloc(i64 1, i64 184)
  %13 = getelementptr inbounds nuw i8, ptr %calloc, i64 64
  store ptr %0, ptr %13, align 8, !tbaa !21
  store i32 %1, ptr %calloc, align 8, !tbaa !20
  %14 = getelementptr inbounds nuw i8, ptr %calloc, i64 4
  store i32 %2, ptr %14, align 4, !tbaa !19
  %15 = getelementptr inbounds nuw i8, ptr %calloc, i64 8
  store i32 %3, ptr %15, align 8, !tbaa !80
  %16 = getelementptr inbounds nuw i8, ptr %calloc, i64 12
  store i32 %4, ptr %16, align 4, !tbaa !121
  %17 = getelementptr inbounds nuw i8, ptr %calloc, i64 16
  store i32 %5, ptr %17, align 8, !tbaa !122
  %18 = getelementptr inbounds nuw i8, ptr %calloc, i64 20
  store i32 %6, ptr %18, align 4, !tbaa !120
  %19 = getelementptr inbounds nuw i8, ptr %calloc, i64 24
  store i32 %7, ptr %19, align 8, !tbaa !183
  %20 = getelementptr inbounds nuw i8, ptr %calloc, i64 28
  store i32 %8, ptr %20, align 4, !tbaa !184
  %21 = getelementptr inbounds nuw i8, ptr %calloc, i64 32
  store i32 %9, ptr %21, align 8, !tbaa !106
  %22 = getelementptr inbounds nuw i8, ptr %calloc, i64 36
  store i32 %10, ptr %22, align 4, !tbaa !85
  %23 = getelementptr inbounds nuw i8, ptr %calloc, i64 40
  store i32 %11, ptr %23, align 8, !tbaa !185
  %24 = getelementptr inbounds nuw i8, ptr %calloc, i64 44
  store i32 512, ptr %24, align 4, !tbaa !75
  %25 = getelementptr inbounds nuw i8, ptr %calloc, i64 52
  store i32 32, ptr %25, align 4, !tbaa !105
  %26 = shl nsw i32 %2, 4
  %27 = getelementptr inbounds nuw i8, ptr %calloc, i64 48
  store i32 %26, ptr %27, align 8, !tbaa !47
  %28 = tail call noalias dereferenceable_or_null(16) ptr @malloc(i64 noundef 16) #24
  %29 = getelementptr inbounds nuw i8, ptr %28, i64 4
  store i32 0, ptr %29, align 4, !tbaa !77
  store i32 16384, ptr %28, align 8, !tbaa !87
  %30 = tail call noalias dereferenceable_or_null(65536) ptr @malloc(i64 noundef 65536) #24
  %31 = getelementptr inbounds nuw i8, ptr %28, i64 8
  store ptr %30, ptr %31, align 8, !tbaa !79
  %32 = getelementptr inbounds nuw i8, ptr %calloc, i64 112
  store ptr %28, ptr %32, align 8, !tbaa !86
  %33 = tail call noalias dereferenceable_or_null(16) ptr @malloc(i64 noundef 16) #24
  %34 = getelementptr inbounds nuw i8, ptr %33, i64 4
  store i32 0, ptr %34, align 4, !tbaa !77
  store i32 4096, ptr %33, align 8, !tbaa !87
  %35 = tail call noalias dereferenceable_or_null(16384) ptr @malloc(i64 noundef 16384) #24
  %36 = getelementptr inbounds nuw i8, ptr %33, i64 8
  store ptr %35, ptr %36, align 8, !tbaa !79
  %37 = getelementptr inbounds nuw i8, ptr %calloc, i64 120
  store ptr %33, ptr %37, align 8, !tbaa !89
  %38 = tail call noalias dereferenceable_or_null(16) ptr @malloc(i64 noundef 16) #24
  %39 = getelementptr inbounds nuw i8, ptr %38, i64 4
  store i32 0, ptr %39, align 4, !tbaa !77
  store i32 4096, ptr %38, align 8, !tbaa !87
  %40 = tail call noalias dereferenceable_or_null(16384) ptr @malloc(i64 noundef 16384) #24
  %41 = getelementptr inbounds nuw i8, ptr %38, i64 8
  store ptr %40, ptr %41, align 8, !tbaa !79
  %42 = getelementptr inbounds nuw i8, ptr %calloc, i64 128
  store ptr %38, ptr %42, align 8, !tbaa !76
  %43 = tail call noalias dereferenceable_or_null(16) ptr @malloc(i64 noundef 16) #24
  %44 = getelementptr inbounds nuw i8, ptr %43, i64 4
  store i32 0, ptr %44, align 4, !tbaa !77
  store i32 16384, ptr %43, align 8, !tbaa !87
  %45 = tail call noalias dereferenceable_or_null(65536) ptr @malloc(i64 noundef 65536) #24
  %46 = getelementptr inbounds nuw i8, ptr %43, i64 8
  store ptr %45, ptr %46, align 8, !tbaa !79
  %47 = getelementptr inbounds nuw i8, ptr %calloc, i64 152
  store ptr %43, ptr %47, align 8, !tbaa !135
  %48 = tail call noalias dereferenceable_or_null(16) ptr @malloc(i64 noundef 16) #24
  %49 = getelementptr inbounds nuw i8, ptr %48, i64 4
  store i32 0, ptr %49, align 4, !tbaa !77
  store i32 4096, ptr %48, align 8, !tbaa !87
  %50 = tail call noalias dereferenceable_or_null(16384) ptr @malloc(i64 noundef 16384) #24
  %51 = getelementptr inbounds nuw i8, ptr %48, i64 8
  store ptr %50, ptr %51, align 8, !tbaa !79
  %52 = getelementptr inbounds nuw i8, ptr %calloc, i64 160
  store ptr %48, ptr %52, align 8, !tbaa !134
  %53 = getelementptr inbounds nuw i8, ptr %calloc, i64 180
  store i32 1024, ptr %53, align 4, !tbaa !160
  %54 = getelementptr i8, ptr %0, i64 32
  %.val = load ptr, ptr %54, align 8, !tbaa !108
  %55 = getelementptr i8, ptr %.val, i64 4
  %.val.val = load i32, ptr %55, align 4, !tbaa !97
  %56 = add nsw i32 %.val.val, 1
  %57 = sext i32 %56 to i64
  %58 = mul nsw i64 %57, 136
  %59 = tail call noalias ptr @malloc(i64 noundef %58) #24
  %60 = getelementptr inbounds ptr, ptr %59, i64 %57
  %61 = icmp sgt i32 %.val.val, -1
  br i1 %61, label %.lr.ph.preheader.i, label %Vec_PtrCleanSimInfo.exit.critedge

.lr.ph.preheader.i:                               ; preds = %12
  %wide.trip.count.i = zext nneg i32 %56 to i64
  br label %.lr.ph.i

.lr.ph.i:                                         ; preds = %.lr.ph.i, %.lr.ph.preheader.i
  %indvars.iv.i = phi i64 [ 0, %.lr.ph.preheader.i ], [ %indvars.iv.next.i, %.lr.ph.i ]
  %.idx = shl nsw i64 %indvars.iv.i, 7
  %62 = getelementptr inbounds nuw i8, ptr %60, i64 %.idx
  %63 = getelementptr inbounds nuw ptr, ptr %59, i64 %indvars.iv.i
  store ptr %62, ptr %63, align 8, !tbaa !33
  %indvars.iv.next.i = add nuw nsw i64 %indvars.iv.i, 1
  %exitcond.not.i = icmp eq i64 %indvars.iv.next.i, %wide.trip.count.i
  br i1 %exitcond.not.i, label %Vec_PtrAllocSimInfo.exit, label %.lr.ph.i, !llvm.loop !163

Vec_PtrAllocSimInfo.exit:                         ; preds = %.lr.ph.i
  %64 = tail call noalias dereferenceable_or_null(16) ptr @malloc(i64 noundef 16) #24
  %65 = getelementptr inbounds nuw i8, ptr %64, i64 4
  store i32 %56, ptr %65, align 4, !tbaa !97
  store i32 %56, ptr %64, align 8, !tbaa !186
  %66 = getelementptr inbounds nuw i8, ptr %64, i64 8
  store ptr %59, ptr %66, align 8, !tbaa !31
  %67 = getelementptr inbounds nuw i8, ptr %calloc, i64 168
  store ptr %64, ptr %67, align 8, !tbaa !159
  br label %.lr.ph.i42

.lr.ph.i42:                                       ; preds = %Vec_PtrAllocSimInfo.exit, %.lr.ph.i42
  %indvars.iv.i43 = phi i64 [ %indvars.iv.next.i44, %.lr.ph.i42 ], [ 0, %Vec_PtrAllocSimInfo.exit ]
  %68 = getelementptr inbounds nuw ptr, ptr %59, i64 %indvars.iv.i43
  %69 = load ptr, ptr %68, align 8, !tbaa !33
  tail call void @llvm.memset.p0.i64(ptr noundef nonnull align 1 dereferenceable(128) %69, i8 0, i64 128, i1 false)
  %indvars.iv.next.i44 = add nuw nsw i64 %indvars.iv.i43, 1
  %exitcond.not = icmp eq i64 %indvars.iv.next.i44, %57
  br i1 %exitcond.not, label %Vec_PtrCleanSimInfo.exit, label %.lr.ph.i42, !llvm.loop !161

Vec_PtrCleanSimInfo.exit.critedge:                ; preds = %12
  %70 = tail call noalias dereferenceable_or_null(16) ptr @malloc(i64 noundef 16) #24
  %71 = getelementptr inbounds nuw i8, ptr %70, i64 4
  store i32 %56, ptr %71, align 4, !tbaa !97
  store i32 %56, ptr %70, align 8, !tbaa !186
  %72 = getelementptr inbounds nuw i8, ptr %70, i64 8
  store ptr %59, ptr %72, align 8, !tbaa !31
  %73 = getelementptr inbounds nuw i8, ptr %calloc, i64 168
  store ptr %70, ptr %73, align 8, !tbaa !159
  br label %Vec_PtrCleanSimInfo.exit

Vec_PtrCleanSimInfo.exit:                         ; preds = %.lr.ph.i42, %Vec_PtrCleanSimInfo.exit.critedge
  ret ptr %calloc
}